; Function Attrs: mustprogress uwtable
define noundef nonnull align 8 dereferenceable(200) ptr @_ZN6icu_7510UnicodeSet9retainAllERKNS_13UnicodeStringE(ptr noundef nonnull returned align 8 dereferenceable(200) %this, ptr noundef nonnull align 8 dereferenceable(64) %s) local_unnamed_addr #1 align 2 personality ptr @__gxx_personality_v0 {
entry:
  %set = alloca %"class.icu_75::UnicodeSet", align 8
  call void @_ZN6icu_7510UnicodeSetC1Ev(ptr noundef nonnull align 8 dereferenceable(200) %set)
  %fUnion.i.i.i = getelementptr inbounds i8, ptr %s, i64 8
  %fLength.i.i = getelementptr inbounds i8, ptr %s, i64 12
  %0 = load i16, ptr %fUnion.i.i.i, align 8
  %cmp.i.i5.i = icmp slt i16 %0, 0
  %1 = ashr i16 %0, 5
  %shr.i.i6.i = sext i16 %1 to i32
  %2 = load i32, ptr %fLength.i.i, align 4
  %cond.i7.i = select i1 %cmp.i.i5.i, i32 %2, i32 %shr.i.i6.i
  %cmp8.i = icmp sgt i32 %cond.i7.i, 0
  br i1 %cmp8.i, label %for.body.i, label %invoke.cont

for.body.i:                                       ; preds = %entry, %call3.i.noexc
  %i.09.i = phi i32 [ %add.i, %call3.i.noexc ], [ 0, %entry ]
  %call2.i1 = invoke noundef i32 @_ZNK6icu_7513UnicodeString8char32AtEi(ptr noundef nonnull align 8 dereferenceable(64) %s, i32 noundef %i.09.i)
          to label %call2.i.noexc unwind label %lpad.loopexit

call2.i.noexc:                                    ; preds = %for.body.i
  %call3.i2 = invoke noundef nonnull align 8 dereferenceable(200) ptr @_ZN6icu_7510UnicodeSet3addEi(ptr noundef nonnull align 8 dereferenceable(200) %set, i32 noundef %call2.i1)
          to label %call3.i.noexc unwind label %lpad.loopexit

call3.i.noexc:                                    ; preds = %call2.i.noexc
  %cmp4.i = icmp ult i32 %call2.i1, 65536
  %cond.i = select i1 %cmp4.i, i32 1, i32 2
  %add.i = add nuw nsw i32 %cond.i, %i.09.i
  %3 = load i16, ptr %fUnion.i.i.i, align 8
  %cmp.i.i.i = icmp slt i16 %3, 0
  %4 = ashr i16 %3, 5
  %shr.i.i.i = sext i16 %4 to i32
  %5 = load i32, ptr %fLength.i.i, align 4
  %cond.i.i = select i1 %cmp.i.i.i, i32 %5, i32 %shr.i.i.i
  %cmp.i = icmp slt i32 %add.i, %cond.i.i
  br i1 %cmp.i, label %for.body.i, label %invoke.cont, !llvm.loop !22

invoke.cont:                                      ; preds = %call3.i.noexc, %entry
  %bmpSet.i.i = getelementptr inbounds i8, ptr %this, i64 40
  %6 = load ptr, ptr %bmpSet.i.i, align 8
  %cmp.not.i.i = icmp eq ptr %6, null
  %stringSpan.i.i = getelementptr inbounds i8, ptr %this, i64 88
  %7 = load ptr, ptr %stringSpan.i.i, align 8
  %cmp2.i.i = icmp eq ptr %7, null
  %narrow.i.not.i = select i1 %cmp.not.i.i, i1 %cmp2.i.i, i1 false
  br i1 %narrow.i.not.i, label %lor.lhs.false.i, label %invoke.cont2

lor.lhs.false.i:                                  ; preds = %invoke.cont
  %fFlags.i.i = getelementptr inbounds i8, ptr %this, i64 32
  %8 = load i8, ptr %fFlags.i.i, align 8
  %9 = and i8 %8, 1
  %tobool3.not.i = icmp eq i8 %9, 0
  br i1 %tobool3.not.i, label %if.end.i, label %invoke.cont2

if.end.i:                                         ; preds = %lor.lhs.false.i
  %list.i = getelementptr inbounds i8, ptr %set, i64 16
  %10 = load ptr, ptr %list.i, align 8
  %len.i = getelementptr inbounds i8, ptr %set, i64 28
  %11 = load i32, ptr %len.i, align 4
  invoke void @_ZN6icu_7510UnicodeSet6retainEPKiia(ptr noundef nonnull align 8 dereferenceable(200) %this, ptr noundef %10, i32 noundef %11, i8 noundef signext 0)
          to label %.noexc unwind label %lpad.loopexit.split-lp

.noexc:                                           ; preds = %if.end.i
  %strings.i.i = getelementptr inbounds i8, ptr %this, i64 80
  %12 = load ptr, ptr %strings.i.i, align 8
  %cmp.not.i4.i = icmp eq ptr %12, null
  br i1 %cmp.not.i4.i, label %invoke.cont2, label %_ZNK6icu_7510UnicodeSet10hasStringsEv.exit.i

_ZNK6icu_7510UnicodeSet10hasStringsEv.exit.i:     ; preds = %.noexc
  %count.i.i.i = getelementptr inbounds i8, ptr %12, i64 8
  %13 = load i32, ptr %count.i.i.i, align 8
  %cmp.i.i.not.i = icmp eq i32 %13, 0
  br i1 %cmp.i.i.not.i, label %invoke.cont2, label %if.then6.i

if.then6.i:                                       ; preds = %_ZNK6icu_7510UnicodeSet10hasStringsEv.exit.i
  %strings.i6.i = getelementptr inbounds i8, ptr %set, i64 80
  %14 = load ptr, ptr %strings.i6.i, align 8
  %cmp.not.i7.i = icmp eq ptr %14, null
  br i1 %cmp.not.i7.i, label %if.then9.i, label %_ZNK6icu_7510UnicodeSet10hasStringsEv.exit12.i

_ZNK6icu_7510UnicodeSet10hasStringsEv.exit12.i:   ; preds = %if.then6.i
  %count.i.i9.i = getelementptr inbounds i8, ptr %14, i64 8
  %15 = load i32, ptr %count.i.i9.i, align 8
  %cmp.i.i10.not.i = icmp eq i32 %15, 0
  br i1 %cmp.i.i10.not.i, label %if.then9.i, label %if.else.i

if.then9.i:                                       ; preds = %_ZNK6icu_7510UnicodeSet10hasStringsEv.exit12.i, %if.then6.i
  invoke void @_ZN6icu_757UVector17removeAllElementsEv(ptr noundef nonnull align 8 dereferenceable(40) %12)
          to label %invoke.cont2 unwind label %lpad.loopexit.split-lp

if.else.i:                                        ; preds = %_ZNK6icu_7510UnicodeSet10hasStringsEv.exit12.i
  %call12.i4 = invoke noundef signext i8 @_ZN6icu_757UVector9retainAllERKS0_(ptr noundef nonnull align 8 dereferenceable(40) %12, ptr noundef nonnull align 8 dereferenceable(40) %14)
          to label %invoke.cont2 unwind label %lpad.loopexit.split-lp

invoke.cont2:                                     ; preds = %_ZNK6icu_7510UnicodeSet10hasStringsEv.exit.i, %.noexc, %lor.lhs.false.i, %invoke.cont, %if.then9.i, %if.else.i
  call void @_ZN6icu_7510UnicodeSetD1Ev(ptr noundef nonnull align 8 dereferenceable(200) %set) #22
  ret ptr %this

lpad.loopexit:                                    ; preds = %for.body.i, %call2.i.noexc
  %lpad.loopexit5 = landingpad { ptr, i32 }
          cleanup
  br label %lpad

lpad.loopexit.split-lp:                           ; preds = %if.end.i, %if.then9.i, %if.else.i
  %lpad.loopexit.split-lp6 = landingpad { ptr, i32 }
          cleanup
  br label %lpad

lpad:                                             ; preds = %lpad.loopexit.split-lp, %lpad.loopexit
  %lpad.phi = phi { ptr, i32 } [ %lpad.loopexit5, %lpad.loopexit ], [ %lpad.loopexit.split-lp6, %lpad.loopexit.split-lp ]
  call void @_ZN6icu_7510UnicodeSetD1Ev(ptr noundef nonnull align 8 dereferenceable(200) %set) #22
  resume { ptr, i32 } %lpad.phi
}